target datalayout = "e-m:e-p270:32:32-p271:32:32-p272:64:64-i64:64-i128:128-f80:128-n8:16:32:64-S128"
target triple = "x86_64-unknown-linux-gnu"

%struct.QEMUBH = type { ptr, ptr, ptr, ptr, %struct.anon, i32, ptr }
%struct.anon = type { ptr }
%struct.AioContext = type { %struct._GSource, %struct.QemuRecMutex, ptr, %struct.AioHandlerList, %struct.AioHandlerList, i32, %struct.QemuLockCnt, %struct.BHList, %struct.anon.1, i8, %struct.EventNotifier, %struct.anon.2, ptr, i32, i32, ptr, ptr, %struct.io_uring, %struct.AioHandlerSList, %struct.QEMUTimerListGroup, i32, i64, i64, i64, i64, i64, %struct.AioHandlerList, i8, i32, ptr }
%struct._GSource = type { ptr, ptr, ptr, i32, ptr, i32, i32, i32, ptr, ptr, ptr, ptr, ptr }
%struct.QemuRecMutex = type { %struct.QemuMutex }
%struct.QemuMutex = type { %union.pthread_mutex_t, i8 }
%union.pthread_mutex_t = type { %struct.__pthread_mutex_s }
%struct.__pthread_mutex_s = type { i32, i32, i32, i32, i32, i16, i16, %struct.__pthread_internal_list }
%struct.__pthread_internal_list = type { ptr, ptr }
%struct.QemuLockCnt = type { i32 }
%struct.BHList = type { ptr }
%struct.anon.1 = type { ptr, ptr }
%struct.EventNotifier = type { i32, i32, i8 }
%struct.anon.2 = type { ptr }
%struct.io_uring = type { %struct.io_uring_sq, %struct.io_uring_cq, i32, i32, i32, [3 x i32] }
%struct.io_uring_sq = type { ptr, ptr, ptr, ptr, ptr, ptr, ptr, ptr, i32, i32, i64, ptr, [4 x i32] }
%struct.io_uring_cq = type { ptr, ptr, ptr, ptr, ptr, ptr, ptr, i64, ptr, [4 x i32] }
%struct.AioHandlerSList = type { ptr }
%struct.QEMUTimerListGroup = type { [4 x ptr] }
%struct.AioHandlerList = type { ptr }
%struct.BHListSlice = type { %struct.BHList, %struct.anon.0 }
%struct.anon.0 = type { ptr }

@.str = private unnamed_addr constant [21 x i8] c"../qemu/util/async.c\00", align 1
@__func__.aio_bh_poll = private unnamed_addr constant [12 x i8] c"aio_bh_poll\00", align 1
@__func__.aio_bh_dequeue = private unnamed_addr constant [15 x i8] c"aio_bh_dequeue\00", align 1

; Function Attrs: nounwind sspstrong uwtable
define internal ptr @aio_bh_dequeue(ptr noundef %head, ptr noundef %flags) #0 {
entry:
  %retval = alloca ptr, align 8
  %head.addr = alloca ptr, align 8
  %flags.addr = alloca ptr, align 8
  %bh = alloca ptr, align 8
  %_val0 = alloca ptr, align 8
  %tmp = alloca ptr, align 8
  %elm = alloca ptr, align 8
  %.atomictmp = alloca i32, align 4
  %atomic-temp = alloca i32, align 4
  store ptr %head, ptr %head.addr, align 8
  store ptr %flags, ptr %flags.addr, align 8
  br label %while.cond

while.cond:                                       ; preds = %do.end, %entry
  br i1 false, label %while.body, label %while.end

while.body:                                       ; preds = %while.cond
  br label %do.body

do.body:                                          ; preds = %while.body
  call void @g_assertion_message_expr(ptr noundef null, ptr noundef @.str, i32 noundef 109, ptr noundef @__func__.aio_bh_dequeue, ptr noundef null) #10
  unreachable

do.end:                                           ; No predecessors!
  br label %while.cond

while.end:                                        ; preds = %while.cond
  %0 = load ptr, ptr %head.addr, align 8
  %slh_first = getelementptr inbounds %struct.BHList, ptr %0, i32 0, i32 0
  %1 = load atomic i64, ptr %slh_first monotonic, align 8
  store i64 %1, ptr %_val0, align 8
  call void asm sideeffect "", "~{memory},~{dirflag},~{fpsr},~{flags}"() #11, !srcloc !8
  %2 = load ptr, ptr %_val0, align 8
  store ptr %2, ptr %tmp, align 8
  %3 = load ptr, ptr %tmp, align 8
  store ptr %3, ptr %bh, align 8
  %4 = load ptr, ptr %bh, align 8
  %tobool = icmp ne ptr %4, null
  br i1 %tobool, label %if.end, label %if.then

if.then:                                          ; preds = %while.end
  store ptr null, ptr %retval, align 8
  br label %return

if.end:                                           ; preds = %while.end
  br label %do.body1

do.body1:                                         ; preds = %if.end
  %5 = load ptr, ptr %head.addr, align 8
  %slh_first2 = getelementptr inbounds %struct.BHList, ptr %5, i32 0, i32 0
  %6 = load ptr, ptr %slh_first2, align 8
  store ptr %6, ptr %elm, align 8
  %7 = load ptr, ptr %elm, align 8
  %next = getelementptr inbounds %struct.QEMUBH, ptr %7, i32 0, i32 4
  %sle_next = getelementptr inbounds %struct.anon, ptr %next, i32 0, i32 0
  %8 = load ptr, ptr %sle_next, align 8
  %9 = load ptr, ptr %head.addr, align 8
  %slh_first3 = getelementptr inbounds %struct.BHList, ptr %9, i32 0, i32 0
  store ptr %8, ptr %slh_first3, align 8
  %10 = load ptr, ptr %elm, align 8
  %next4 = getelementptr inbounds %struct.QEMUBH, ptr %10, i32 0, i32 4
  %sle_next5 = getelementptr inbounds %struct.anon, ptr %next4, i32 0, i32 0
  store ptr null, ptr %sle_next5, align 8
  br label %do.end6

do.end6:                                          ; preds = %do.body1
  %11 = load ptr, ptr %bh, align 8
  %flags7 = getelementptr inbounds %struct.QEMUBH, ptr %11, i32 0, i32 5
  store i32 -20, ptr %.atomictmp, align 4
  %12 = load i32, ptr %.atomictmp, align 4
  %13 = atomicrmw and ptr %flags7, i32 %12 seq_cst, align 8
  store i32 %13, ptr %atomic-temp, align 4
  %14 = load i32, ptr %atomic-temp, align 4
  %15 = load ptr, ptr %flags.addr, align 8
  store i32 %14, ptr %15, align 4
  %16 = load ptr, ptr %bh, align 8
  store ptr %16, ptr %retval, align 8
  br label %return

return:                                           ; preds = %do.end6, %if.then
  %17 = load ptr, ptr %retval, align 8
  ret ptr %17
}

; Function Attrs: nounwind sspstrong uwtable
define dso_local i32 @aio_bh_poll(ptr noundef %ctx) #0 {
entry:
  %ctx.addr = alloca ptr, align 8
  %slice = alloca %struct.BHListSlice, align 8
  %s = alloca ptr, align 8
  %ret = alloca i32, align 4
  %tmp = alloca ptr, align 8
  %tmp2 = alloca ptr, align 8
  %.atomictmp = alloca ptr, align 8
  %atomic-temp = alloca ptr, align 8
  %bh = alloca ptr, align 8
  %flags = alloca i32, align 4
  %elm = alloca ptr, align 8
  store ptr %ctx, ptr %ctx.addr, align 8
  store i32 0, ptr %ret, align 4
  br label %do.body

do.body:                                          ; preds = %entry
  br label %while.cond

while.cond:                                       ; preds = %do.end, %do.body
  br i1 false, label %while.body, label %while.end

while.body:                                       ; preds = %while.cond
  br label %do.body1

do.body1:                                         ; preds = %while.body
  call void @g_assertion_message_expr(ptr noundef null, ptr noundef @.str, i32 noundef 184, ptr noundef @__func__.aio_bh_poll, ptr noundef null) #10
  unreachable

do.end:                                           ; No predecessors!
  br label %while.cond

while.end:                                        ; preds = %while.cond
  %0 = load ptr, ptr %ctx.addr, align 8
  %bh_list = getelementptr inbounds %struct.AioContext, ptr %0, i32 0, i32 7
  %slh_first = getelementptr inbounds %struct.BHList, ptr %bh_list, i32 0, i32 0
  store ptr null, ptr %.atomictmp, align 8
  %1 = load i64, ptr %.atomictmp, align 8
  %2 = atomicrmw xchg ptr %slh_first, i64 %1 seq_cst, align 8
  store i64 %2, ptr %atomic-temp, align 8
  %3 = load ptr, ptr %atomic-temp, align 8
  store ptr %3, ptr %tmp2, align 8
  %4 = load ptr, ptr %tmp2, align 8
  store ptr %4, ptr %tmp, align 8
  %5 = load ptr, ptr %tmp, align 8
  %bh_list3 = getelementptr inbounds %struct.BHListSlice, ptr %slice, i32 0, i32 0
  %slh_first4 = getelementptr inbounds %struct.BHList, ptr %bh_list3, i32 0, i32 0
  store ptr %5, ptr %slh_first4, align 8
  br label %do.end5

do.end5:                                          ; preds = %while.end
  br label %do.body6

do.body6:                                         ; preds = %do.end5
  %next = getelementptr inbounds %struct.BHListSlice, ptr %slice, i32 0, i32 1
  %sqe_next = getelementptr inbounds %struct.anon.0, ptr %next, i32 0, i32 0
  store ptr null, ptr %sqe_next, align 8
  %6 = load ptr, ptr %ctx.addr, align 8
  %bh_slice_list = getelementptr inbounds %struct.AioContext, ptr %6, i32 0, i32 8
  %sqh_last = getelementptr inbounds %struct.anon.1, ptr %bh_slice_list, i32 0, i32 1
  %7 = load ptr, ptr %sqh_last, align 8
  store ptr %slice, ptr %7, align 8
  %next7 = getelementptr inbounds %struct.BHListSlice, ptr %slice, i32 0, i32 1
  %sqe_next8 = getelementptr inbounds %struct.anon.0, ptr %next7, i32 0, i32 0
  %8 = load ptr, ptr %ctx.addr, align 8
  %bh_slice_list9 = getelementptr inbounds %struct.AioContext, ptr %8, i32 0, i32 8
  %sqh_last10 = getelementptr inbounds %struct.anon.1, ptr %bh_slice_list9, i32 0, i32 1
  store ptr %sqe_next8, ptr %sqh_last10, align 8
  br label %do.end11

do.end11:                                         ; preds = %do.body6
  br label %while.cond12

while.cond12:                                     ; preds = %if.end43, %do.end31, %do.end11
  %9 = load ptr, ptr %ctx.addr, align 8
  %bh_slice_list13 = getelementptr inbounds %struct.AioContext, ptr %9, i32 0, i32 8
  %sqh_first = getelementptr inbounds %struct.anon.1, ptr %bh_slice_list13, i32 0, i32 0
  %10 = load ptr, ptr %sqh_first, align 8
  store ptr %10, ptr %s, align 8
  %tobool = icmp ne ptr %10, null
  br i1 %tobool, label %while.body14, label %while.end44

while.body14:                                     ; preds = %while.cond12
  %11 = load ptr, ptr %s, align 8
  %bh_list15 = getelementptr inbounds %struct.BHListSlice, ptr %11, i32 0, i32 0
  %call = call ptr @aio_bh_dequeue(ptr noundef %bh_list15, ptr noundef %flags)
  store ptr %call, ptr %bh, align 8
  %12 = load ptr, ptr %bh, align 8
  %tobool16 = icmp ne ptr %12, null
  br i1 %tobool16, label %if.end32, label %if.then

if.then:                                          ; preds = %while.body14
  br label %do.body17

do.body17:                                        ; preds = %if.then
  %13 = load ptr, ptr %ctx.addr, align 8
  %bh_slice_list18 = getelementptr inbounds %struct.AioContext, ptr %13, i32 0, i32 8
  %sqh_first19 = getelementptr inbounds %struct.anon.1, ptr %bh_slice_list18, i32 0, i32 0
  %14 = load ptr, ptr %sqh_first19, align 8
  store ptr %14, ptr %elm, align 8
  %15 = load ptr, ptr %elm, align 8
  %next20 = getelementptr inbounds %struct.BHListSlice, ptr %15, i32 0, i32 1
  %sqe_next21 = getelementptr inbounds %struct.anon.0, ptr %next20, i32 0, i32 0
  %16 = load ptr, ptr %sqe_next21, align 8
  %17 = load ptr, ptr %ctx.addr, align 8
  %bh_slice_list22 = getelementptr inbounds %struct.AioContext, ptr %17, i32 0, i32 8
  %sqh_first23 = getelementptr inbounds %struct.anon.1, ptr %bh_slice_list22, i32 0, i32 0
  store ptr %16, ptr %sqh_first23, align 8
  %cmp = icmp eq ptr %16, null
  br i1 %cmp, label %if.then24, label %if.end

if.then24:                                        ; preds = %do.body17
  %18 = load ptr, ptr %ctx.addr, align 8
  %bh_slice_list25 = getelementptr inbounds %struct.AioContext, ptr %18, i32 0, i32 8
  %sqh_first26 = getelementptr inbounds %struct.anon.1, ptr %bh_slice_list25, i32 0, i32 0
  %19 = load ptr, ptr %ctx.addr, align 8
  %bh_slice_list27 = getelementptr inbounds %struct.AioContext, ptr %19, i32 0, i32 8
  %sqh_last28 = getelementptr inbounds %struct.anon.1, ptr %bh_slice_list27, i32 0, i32 1
  store ptr %sqh_first26, ptr %sqh_last28, align 8
  br label %if.end

if.end:                                           ; preds = %if.then24, %do.body17
  %20 = load ptr, ptr %elm, align 8
  %next29 = getelementptr inbounds %struct.BHListSlice, ptr %20, i32 0, i32 1
  %sqe_next30 = getelementptr inbounds %struct.anon.0, ptr %next29, i32 0, i32 0
  store ptr null, ptr %sqe_next30, align 8
  br label %do.end31

do.end31:                                         ; preds = %if.end
  br label %while.cond12, !llvm.loop !7

if.end32:                                         ; preds = %while.body14
  %21 = load i32, ptr %flags, align 4
  %and = and i32 %21, 6
  %cmp33 = icmp eq i32 %and, 2
  br i1 %cmp33, label %if.then34, label %if.end39

if.then34:                                        ; preds = %if.end32
  %22 = load i32, ptr %flags, align 4
  %and35 = and i32 %22, 16
  %tobool36 = icmp ne i32 %and35, 0
  br i1 %tobool36, label %if.end38, label %if.then37

if.then37:                                        ; preds = %if.then34
  store i32 1, ptr %ret, align 4
  br label %if.end38

if.end38:                                         ; preds = %if.then37, %if.then34
  %23 = load ptr, ptr %bh, align 8
  call void @aio_bh_call(ptr noundef %23)
  br label %if.end39

if.end39:                                         ; preds = %if.end38, %if.end32
  %24 = load i32, ptr %flags, align 4
  %and40 = and i32 %24, 12
  %tobool41 = icmp ne i32 %and40, 0
  br i1 %tobool41, label %if.then42, label %if.end43

if.then42:                                        ; preds = %if.end39
  %25 = load ptr, ptr %bh, align 8
  call void @g_free(ptr noundef %25)
  br label %if.end43

if.end43:                                         ; preds = %if.then42, %if.end39
  br label %while.cond12, !llvm.loop !7

while.end44:                                      ; preds = %while.cond12
  %26 = load i32, ptr %ret, align 4
  ret i32 %26
}